target datalayout = "e-m:e-p270:32:32-p271:32:32-p272:64:64-i64:64-i128:128-f80:128-n8:16:32:64-S128"
target triple = "x86_64-pc-linux-gnu"

%struct.jzfile = type { ptr, i32, i64, ptr, i64, i64, i8, i8, %struct.cencache, i32, ptr, ptr, i32, ptr, ptr, i32, ptr, i32, ptr, ptr, ptr, i32, i32, i64, i64 }
%struct.cencache = type { ptr, i64 }

@zfiles_lock = internal global ptr null, align 8
@zfiles = internal global ptr null, align 8

; Function Attrs: nounwind uwtable
define void @ZIP_Close(ptr noundef %0) #0 {
  %2 = alloca ptr, align 8
  %3 = alloca ptr, align 8
  store ptr %0, ptr %2, align 8
  %4 = load ptr, ptr @zfiles_lock, align 8
  %5 = call i32 @JVM_RawMonitorEnter(ptr noundef %4)
  %6 = load ptr, ptr %2, align 8
  %7 = getelementptr inbounds %struct.jzfile, ptr %6, i32 0, i32 1
  %8 = load i32, ptr %7, align 8
  %9 = add nsw i32 %8, -1
  store i32 %9, ptr %7, align 8
  %10 = icmp sgt i32 %9, 0
  br i1 %10, label %11, label %13

11:                                               ; preds = %1
  %12 = load ptr, ptr @zfiles_lock, align 8
  call void @JVM_RawMonitorExit(ptr noundef %12)
  br label %49

13:                                               ; preds = %1
  %14 = load ptr, ptr @zfiles, align 8
  %15 = load ptr, ptr %2, align 8
  %16 = icmp eq ptr %14, %15
  br i1 %16, label %17, label %21

17:                                               ; preds = %13
  %18 = load ptr, ptr @zfiles, align 8
  %19 = getelementptr inbounds %struct.jzfile, ptr %18, i32 0, i32 18
  %20 = load ptr, ptr %19, align 8
  store ptr %20, ptr @zfiles, align 8
  br label %46

21:                                               ; preds = %13
  %22 = load ptr, ptr @zfiles, align 8
  store ptr %22, ptr %3, align 8
  br label %23

23:                                               ; preds = %41, %21
  %24 = load ptr, ptr %3, align 8
  %25 = getelementptr inbounds %struct.jzfile, ptr %24, i32 0, i32 18
  %26 = load ptr, ptr %25, align 8
  %27 = icmp ne ptr %26, null
  br i1 %27, label %28, label %45

28:                                               ; preds = %23
  %29 = load ptr, ptr %3, align 8
  %30 = getelementptr inbounds %struct.jzfile, ptr %29, i32 0, i32 18
  %31 = load ptr, ptr %30, align 8
  %32 = load ptr, ptr %2, align 8
  %33 = icmp eq ptr %31, %32
  br i1 %33, label %34, label %40

34:                                               ; preds = %28
  %35 = load ptr, ptr %2, align 8
  %36 = getelementptr inbounds %struct.jzfile, ptr %35, i32 0, i32 18
  %37 = load ptr, ptr %36, align 8
  %38 = load ptr, ptr %3, align 8
  %39 = getelementptr inbounds %struct.jzfile, ptr %38, i32 0, i32 18
  store ptr %37, ptr %39, align 8
  br label %45

40:                                               ; preds = %28
  br label %41

41:                                               ; preds = %40
  %42 = load ptr, ptr %3, align 8
  %43 = getelementptr inbounds %struct.jzfile, ptr %42, i32 0, i32 18
  %44 = load ptr, ptr %43, align 8
  store ptr %44, ptr %3, align 8
  br label %23, !llvm.loop !11

45:                                               ; preds = %34, %23
  br label %46

46:                                               ; preds = %45, %17
  %47 = load ptr, ptr @zfiles_lock, align 8
  call void @JVM_RawMonitorExit(ptr noundef %47)
  %48 = load ptr, ptr %2, align 8
  call void @freeZip(ptr noundef %48)
  br label %49

49:                                               ; preds = %46, %11
  ret void
}