; Function Attrs: nounwind uwtable
define void @ZIP_Close(ptr noundef %0) local_unnamed_addr #0 {
  %2 = load ptr, ptr @zfiles_lock, align 8
  %3 = tail call i32 @JVM_RawMonitorEnter(ptr noundef %2) #21
  %4 = getelementptr inbounds i8, ptr %0, i64 8
  %5 = load i32, ptr %4, align 8
  %6 = add nsw i32 %5, -1
  store i32 %6, ptr %4, align 8
  %7 = icmp sgt i32 %5, 1
  br i1 %7, label %8, label %10

8:                                                ; preds = %1
  %9 = load ptr, ptr @zfiles_lock, align 8
  tail call void @JVM_RawMonitorExit(ptr noundef %9) #21
  br label %22

10:                                               ; preds = %1
  %11 = load ptr, ptr @zfiles, align 8
  %12 = icmp eq ptr %11, %0
  br i1 %12, label %.loopexit.sink.split, label %.preheader

.preheader:                                       ; preds = %10, %15
  %.0 = phi ptr [ %14, %15 ], [ %11, %10 ]
  %13 = getelementptr inbounds i8, ptr %.0, i64 144
  %14 = load ptr, ptr %13, align 8
  %.not = icmp eq ptr %14, null
  br i1 %.not, label %.loopexit, label %15

15:                                               ; preds = %.preheader
  %16 = icmp eq ptr %14, %0
  br i1 %16, label %17, label %.preheader, !llvm.loop !17

17:                                               ; preds = %15
  %18 = getelementptr inbounds i8, ptr %.0, i64 144
  br label %.loopexit.sink.split

.loopexit.sink.split:                             ; preds = %10, %17
  %.sink = phi ptr [ %0, %17 ], [ %11, %10 ]
  %.sink15 = phi ptr [ %18, %17 ], [ @zfiles, %10 ]
  %19 = getelementptr inbounds i8, ptr %.sink, i64 144
  %20 = load ptr, ptr %19, align 8
  store ptr %20, ptr %.sink15, align 8
  br label %.loopexit

.loopexit:                                        ; preds = %.preheader, %.loopexit.sink.split
  %21 = load ptr, ptr @zfiles_lock, align 8
  tail call void @JVM_RawMonitorExit(ptr noundef %21) #21
  tail call fastcc void @freeZip(ptr noundef %0)
  br label %22

22:                                               ; preds = %.loopexit, %8
  ret void
}